; Function Attrs: mustprogress nounwind memory(read, inaccessiblemem: write) uwtable
define { i64, i64 } @_ZNK8facebook5velox17IOBufOutputStream5tellpEv(ptr nocapture noundef nonnull readonly align 8 dereferenceable(40) %this) unnamed_addr #3 align 2 {
entry:
  %out_ = getelementptr inbounds i8, ptr %this, i64 32
  %0 = load ptr, ptr %out_, align 8
  %ranges_.i = getelementptr inbounds i8, ptr %0, i64 16
  %1 = load ptr, ptr %ranges_.i, align 8
  %_M_finish.i.i.i = getelementptr inbounds i8, ptr %0, i64 24
  %2 = load ptr, ptr %_M_finish.i.i.i, align 8
  %cmp.i.i.i = icmp eq ptr %1, %2
  br i1 %cmp.i.i.i, label %_ZNK8facebook5velox16ByteOutputStream5tellpEv.exit, label %for.cond.preheader.i

for.cond.preheader.i:                             ; preds = %entry
  %current_.i = getelementptr inbounds i8, ptr %0, i64 48
  %3 = load ptr, ptr %current_.i, align 8
  br label %for.body.i

for.body.i:                                       ; preds = %if.end10.i, %for.cond.preheader.i
  %size.09.i = phi i64 [ 0, %for.cond.preheader.i ], [ %add13.i, %if.end10.i ]
  %__begin2.sroa.0.08.i = phi ptr [ %1, %for.cond.preheader.i ], [ %incdec.ptr.i.i, %if.end10.i ]
  %cmp.i = icmp eq ptr %__begin2.sroa.0.08.i, %3
  br i1 %cmp.i, label %if.then8.i, label %if.end10.i

if.then8.i:                                       ; preds = %for.body.i
  %position.i = getelementptr inbounds i8, ptr %3, i64 12
  %4 = load i32, ptr %position.i, align 4
  %conv.i = sext i32 %4 to i64
  %add.i = add nsw i64 %size.09.i, %conv.i
  br label %_ZNK8facebook5velox16ByteOutputStream5tellpEv.exit

if.end10.i:                                       ; preds = %for.body.i
  %size11.i = getelementptr inbounds i8, ptr %__begin2.sroa.0.08.i, i64 8
  %5 = load i32, ptr %size11.i, align 8
  %conv12.i = sext i32 %5 to i64
  %add13.i = add nsw i64 %size.09.i, %conv12.i
  %incdec.ptr.i.i = getelementptr inbounds i8, ptr %__begin2.sroa.0.08.i, i64 16
  %cmp.i.not.i = icmp eq ptr %incdec.ptr.i.i, %2
  br i1 %cmp.i.not.i, label %for.end.i, label %for.body.i

for.end.i:                                        ; preds = %if.end10.i
  tail call void @llvm.trap()
  unreachable

_ZNK8facebook5velox16ByteOutputStream5tellpEv.exit: ; preds = %entry, %if.then8.i
  %retval.sroa.0.0.i = phi i64 [ %add.i, %if.then8.i ], [ 0, %entry ]
  %.fca.0.insert.i = insertvalue { i64, i64 } poison, i64 %retval.sroa.0.0.i, 0
  %.fca.1.insert.i = insertvalue { i64, i64 } %.fca.0.insert.i, i64 0, 1
  ret { i64, i64 } %.fca.1.insert.i
}